; Function Attrs: mustprogress uwtable
define hidden noundef zeroext i1 @_ZN18OpenImageIO_v2_6_03pvt17TextureSystemImpl11environmentEPNS_13TextureSystem13TextureHandleEPNS2_9PerthreadERNS_14TextureOptionsEPhiiNS_10VaryingRefIN9Imath_2_54Vec3IfEEEESE_SE_iPfSF_SF_(ptr noundef nonnull align 8 dereferenceable(184) %this, ptr noundef %texture_handle, ptr noundef %thread_info, ptr noundef nonnull align 8 dereferenceable(224) %options, ptr nocapture noundef readonly %runflags, i32 noundef %beginactive, i32 noundef %endactive, ptr nocapture noundef readonly byval(%"class.OpenImageIO_v2_6_0::VaryingRef") align 8 %R, ptr nocapture noundef readonly byval(%"class.OpenImageIO_v2_6_0::VaryingRef") align 8 %dRdx, ptr nocapture noundef readonly byval(%"class.OpenImageIO_v2_6_0::VaryingRef") align 8 %dRdy, i32 noundef %nchannels, ptr noundef %result, ptr noundef %dresultds, ptr noundef %dresultdt) unnamed_addr #5 align 2 personality ptr @__gxx_personality_v0 {
entry:
  %opt = alloca %"class.OpenImageIO_v2_6_0::TextureOpt", align 8
  %tobool.not = icmp eq ptr %texture_handle, null
  br i1 %tobool.not, label %return, label %if.end

if.end:                                           ; preds = %entry
  %cmp46 = icmp slt i32 %beginactive, %endactive
  br i1 %cmp46, label %for.body.lr.ph, label %return

for.body.lr.ph:                                   ; preds = %if.end
  %tobool2.not = icmp eq ptr %dresultds, null
  %mul = mul nsw i32 %nchannels, %beginactive
  %idx.ext = sext i32 %mul to i64
  %add.ptr6 = getelementptr inbounds float, ptr %dresultds, i64 %idx.ext
  %dresultds.addr.0 = select i1 %tobool2.not, ptr null, ptr %add.ptr6
  %dresultdt.addr.0.idx = select i1 %tobool2.not, i64 0, i64 %idx.ext
  %dresultdt.addr.0 = getelementptr inbounds float, ptr %dresultdt, i64 %dresultdt.addr.0.idx
  %add.ptr = getelementptr inbounds float, ptr %result, i64 %idx.ext
  %m_step.i = getelementptr inbounds i8, ptr %R, i64 8
  %m_step.i27 = getelementptr inbounds i8, ptr %dRdx, i64 8
  %m_step.i35 = getelementptr inbounds i8, ptr %dRdy, i64 8
  %idx.ext25 = sext i32 %nchannels to i64
  %0 = sext i32 %beginactive to i64
  br label %for.body

for.body:                                         ; preds = %for.body.lr.ph, %if.end24
  %indvars.iv = phi i64 [ %0, %for.body.lr.ph ], [ %indvars.iv.next, %if.end24 ]
  %result.addr.051 = phi ptr [ %add.ptr, %for.body.lr.ph ], [ %add.ptr26, %if.end24 ]
  %dresultds.addr.150 = phi ptr [ %dresultds.addr.0, %for.body.lr.ph ], [ %dresultds.addr.2, %if.end24 ]
  %dresultdt.addr.149 = phi ptr [ %dresultdt.addr.0, %for.body.lr.ph ], [ %dresultdt.addr.2, %if.end24 ]
  %ok.048 = phi i8 [ 1, %for.body.lr.ph ], [ %ok.1, %if.end24 ]
  %arrayidx = getelementptr inbounds i8, ptr %runflags, i64 %indvars.iv
  %1 = load i8, ptr %arrayidx, align 1
  %tobool11.not = icmp eq i8 %1, 0
  br i1 %tobool11.not, label %if.end24, label %if.then12

if.then12:                                        ; preds = %for.body
  %2 = trunc i64 %indvars.iv to i32
  call void @_ZN18OpenImageIO_v2_6_010TextureOptC1ERKNS_14TextureOptionsEi(ptr noundef nonnull align 8 dereferenceable(104) %opt, ptr noundef nonnull align 8 dereferenceable(224) %options, i32 noundef %2)
  %3 = load ptr, ptr %R, align 8
  %4 = load i32, ptr %m_step.i, align 8
  %5 = sext i32 %4 to i64
  %6 = mul nsw i64 %indvars.iv, %5
  %add.ptr.i = getelementptr inbounds i8, ptr %3, i64 %6
  %7 = load <2 x float>, ptr %add.ptr.i, align 4
  %z4.i = getelementptr inbounds i8, ptr %add.ptr.i, i64 8
  %8 = load float, ptr %z4.i, align 4
  %9 = load ptr, ptr %dRdx, align 8
  %10 = load i32, ptr %m_step.i27, align 8
  %11 = sext i32 %10 to i64
  %12 = mul nsw i64 %indvars.iv, %11
  %add.ptr.i30 = getelementptr inbounds i8, ptr %9, i64 %12
  %13 = load <2 x float>, ptr %add.ptr.i30, align 4
  %z4.i34 = getelementptr inbounds i8, ptr %add.ptr.i30, i64 8
  %14 = load float, ptr %z4.i34, align 4
  %15 = load ptr, ptr %dRdy, align 8
  %16 = load i32, ptr %m_step.i35, align 8
  %17 = sext i32 %16 to i64
  %18 = mul nsw i64 %indvars.iv, %17
  %add.ptr.i38 = getelementptr inbounds i8, ptr %15, i64 %18
  %19 = load <2 x float>, ptr %add.ptr.i38, align 4
  %z4.i42 = getelementptr inbounds i8, ptr %add.ptr.i38, i64 8
  %20 = load float, ptr %z4.i42, align 4
  %call20 = call noundef zeroext i1 @_ZN18OpenImageIO_v2_6_03pvt17TextureSystemImpl11environmentEPNS_13TextureSystem13TextureHandleEPNS2_9PerthreadERNS_10TextureOptENS_9Vec3ParamIfEESA_SA_iPfSB_SB_(ptr noundef nonnull align 8 dereferenceable(184) %this, ptr noundef nonnull %texture_handle, ptr noundef %thread_info, ptr noundef nonnull align 8 dereferenceable(104) %opt, <2 x float> %7, float %8, <2 x float> %13, float %14, <2 x float> %19, float %20, i32 noundef %nchannels, ptr noundef %result.addr.051, ptr noundef %dresultds.addr.150, ptr noundef %dresultdt.addr.149)
  %21 = and i8 %ok.048, 1
  %tobool2326 = icmp ne i8 %21, 0
  %tobool23 = select i1 %call20, i1 %tobool2326, i1 false
  %frombool = zext i1 %tobool23 to i8
  br label %if.end24

if.end24:                                         ; preds = %if.then12, %for.body
  %ok.1 = phi i8 [ %frombool, %if.then12 ], [ %ok.048, %for.body ]
  %add.ptr26 = getelementptr inbounds float, ptr %result.addr.051, i64 %idx.ext25
  %tobool27.not = icmp eq ptr %dresultds.addr.150, null
  %add.ptr30 = getelementptr inbounds float, ptr %dresultds.addr.150, i64 %idx.ext25
  %dresultdt.addr.2.idx = select i1 %tobool27.not, i64 0, i64 %idx.ext25
  %dresultdt.addr.2 = getelementptr inbounds float, ptr %dresultdt.addr.149, i64 %dresultdt.addr.2.idx
  %dresultds.addr.2 = select i1 %tobool27.not, ptr null, ptr %add.ptr30
  %indvars.iv.next = add nsw i64 %indvars.iv, 1
  %lftr.wideiv = trunc i64 %indvars.iv.next to i32
  %exitcond.not = icmp eq i32 %lftr.wideiv, %endactive
  br i1 %exitcond.not, label %for.end.loopexit, label %for.body, !llvm.loop !4

for.end.loopexit:                                 ; preds = %if.end24
  %22 = and i8 %ok.1, 1
  %23 = icmp ne i8 %22, 0
  br label %return

return:                                           ; preds = %if.end, %for.end.loopexit, %entry
  %retval.0 = phi i1 [ false, %entry ], [ true, %if.end ], [ %23, %for.end.loopexit ]
  ret i1 %retval.0
}